target datalayout = "e-m:e-p270:32:32-p271:32:32-p272:64:64-i64:64-i128:128-f80:128-n8:16:32:64-S128"
target triple = "x86_64-pc-linux-gnu"

@.str.2 = private unnamed_addr constant [14 x i8] c"out of memory\00", align 1
@.str.3 = private unnamed_addr constant [18 x i8] c"SCRAM-SHA-256$%d:\00", align 1
@.str.4 = private unnamed_addr constant [22 x i8] c"could not encode salt\00", align 1
@.str.5 = private unnamed_addr constant [28 x i8] c"could not encode stored key\00", align 1
@.str.6 = private unnamed_addr constant [28 x i8] c"could not encode server key\00", align 1

; Function Attrs: nounwind uwtable
define ptr @scram_build_secret(i32 noundef %0, i32 noundef %1, ptr noundef %2, i32 noundef %3, i32 noundef %4, ptr noundef %5, ptr noundef %6) #0 {
  %8 = alloca ptr, align 8
  %9 = alloca i32, align 4
  %10 = alloca i32, align 4
  %11 = alloca ptr, align 8
  %12 = alloca i32, align 4
  %13 = alloca i32, align 4
  %14 = alloca ptr, align 8
  %15 = alloca ptr, align 8
  %16 = alloca [32 x i8], align 16
  %17 = alloca [32 x i8], align 16
  %18 = alloca [32 x i8], align 16
  %19 = alloca ptr, align 8
  %20 = alloca ptr, align 8
  %21 = alloca i32, align 4
  %22 = alloca i32, align 4
  %23 = alloca i32, align 4
  %24 = alloca i32, align 4
  %25 = alloca i32, align 4
  %26 = alloca i32, align 4
  store i32 %0, ptr %9, align 4
  store i32 %1, ptr %10, align 4
  store ptr %2, ptr %11, align 8
  store i32 %3, ptr %12, align 4
  store i32 %4, ptr %13, align 4
  store ptr %5, ptr %14, align 8
  store ptr %6, ptr %15, align 8
  call void @llvm.lifetime.start.p0(i64 32, ptr %16) #7
  call void @llvm.lifetime.start.p0(i64 32, ptr %17) #7
  call void @llvm.lifetime.start.p0(i64 32, ptr %18) #7
  call void @llvm.lifetime.start.p0(i64 8, ptr %19) #7
  call void @llvm.lifetime.start.p0(i64 8, ptr %20) #7
  call void @llvm.lifetime.start.p0(i64 4, ptr %21) #7
  call void @llvm.lifetime.start.p0(i64 4, ptr %22) #7
  call void @llvm.lifetime.start.p0(i64 4, ptr %23) #7
  call void @llvm.lifetime.start.p0(i64 4, ptr %24) #7
  call void @llvm.lifetime.start.p0(i64 4, ptr %25) #7
  %27 = load ptr, ptr %14, align 8
  %28 = load i32, ptr %9, align 4
  %29 = load i32, ptr %10, align 4
  %30 = load ptr, ptr %11, align 8
  %31 = load i32, ptr %12, align 4
  %32 = load i32, ptr %13, align 4
  %33 = getelementptr inbounds [32 x i8], ptr %16, i64 0, i64 0
  %34 = load ptr, ptr %15, align 8
  %35 = call i32 @scram_SaltedPassword(ptr noundef %27, i32 noundef %28, i32 noundef %29, ptr noundef %30, i32 noundef %31, i32 noundef %32, ptr noundef %33, ptr noundef %34)
  %36 = icmp slt i32 %35, 0
  br i1 %36, label %61, label %37

37:                                               ; preds = %7
  %38 = getelementptr inbounds [32 x i8], ptr %16, i64 0, i64 0
  %39 = load i32, ptr %9, align 4
  %40 = load i32, ptr %10, align 4
  %41 = getelementptr inbounds [32 x i8], ptr %17, i64 0, i64 0
  %42 = load ptr, ptr %15, align 8
  %43 = call i32 @scram_ClientKey(ptr noundef %38, i32 noundef %39, i32 noundef %40, ptr noundef %41, ptr noundef %42)
  %44 = icmp slt i32 %43, 0
  br i1 %44, label %61, label %45

45:                                               ; preds = %37
  %46 = getelementptr inbounds [32 x i8], ptr %17, i64 0, i64 0
  %47 = load i32, ptr %9, align 4
  %48 = load i32, ptr %10, align 4
  %49 = getelementptr inbounds [32 x i8], ptr %17, i64 0, i64 0
  %50 = load ptr, ptr %15, align 8
  %51 = call i32 @scram_H(ptr noundef %46, i32 noundef %47, i32 noundef %48, ptr noundef %49, ptr noundef %50)
  %52 = icmp slt i32 %51, 0
  br i1 %52, label %61, label %53

53:                                               ; preds = %45
  %54 = getelementptr inbounds [32 x i8], ptr %16, i64 0, i64 0
  %55 = load i32, ptr %9, align 4
  %56 = load i32, ptr %10, align 4
  %57 = getelementptr inbounds [32 x i8], ptr %18, i64 0, i64 0
  %58 = load ptr, ptr %15, align 8
  %59 = call i32 @scram_ServerKey(ptr noundef %54, i32 noundef %55, i32 noundef %56, ptr noundef %57, ptr noundef %58)
  %60 = icmp slt i32 %59, 0
  br i1 %60, label %61, label %62

61:                                               ; preds = %53, %45, %37, %7
  store ptr null, ptr %8, align 8
  store i32 1, ptr %26, align 4
  br label %148

62:                                               ; preds = %53
  %63 = load i32, ptr %12, align 4
  %64 = call i32 @pg_b64_enc_len(i32 noundef %63)
  store i32 %64, ptr %22, align 4
  %65 = load i32, ptr %10, align 4
  %66 = call i32 @pg_b64_enc_len(i32 noundef %65)
  store i32 %66, ptr %23, align 4
  %67 = load i32, ptr %10, align 4
  %68 = call i32 @pg_b64_enc_len(i32 noundef %67)
  store i32 %68, ptr %24, align 4
  %69 = load i32, ptr %22, align 4
  %70 = sext i32 %69 to i64
  %71 = add i64 25, %70
  %72 = add i64 %71, 1
  %73 = load i32, ptr %23, align 4
  %74 = sext i32 %73 to i64
  %75 = add i64 %72, %74
  %76 = add i64 %75, 1
  %77 = load i32, ptr %24, align 4
  %78 = sext i32 %77 to i64
  %79 = add i64 %76, %78
  %80 = add i64 %79, 1
  %81 = trunc i64 %80 to i32
  store i32 %81, ptr %21, align 4
  %82 = load i32, ptr %21, align 4
  %83 = sext i32 %82 to i64
  %84 = call noalias ptr @malloc(i64 noundef %83) #9
  store ptr %84, ptr %19, align 8
  %85 = load ptr, ptr %19, align 8
  %86 = icmp ne ptr %85, null
  br i1 %86, label %89, label %87

87:                                               ; preds = %62
  %88 = load ptr, ptr %15, align 8
  store ptr @.str.2, ptr %88, align 8
  store ptr null, ptr %8, align 8
  store i32 1, ptr %26, align 4
  br label %148

89:                                               ; preds = %62
  %90 = load ptr, ptr %19, align 8
  %91 = load ptr, ptr %19, align 8
  %92 = load i32, ptr %13, align 4
  %93 = call i32 (ptr, ptr, ...) @pg_sprintf(ptr noundef %91, ptr noundef @.str.3, i32 noundef %92)
  %94 = sext i32 %93 to i64
  %95 = getelementptr inbounds i8, ptr %90, i64 %94
  store ptr %95, ptr %20, align 8
  %96 = load ptr, ptr %11, align 8
  %97 = load i32, ptr %12, align 4
  %98 = load ptr, ptr %20, align 8
  %99 = load i32, ptr %22, align 4
  %100 = call i32 @pg_b64_encode(ptr noundef %96, i32 noundef %97, ptr noundef %98, i32 noundef %99)
  store i32 %100, ptr %25, align 4
  %101 = load i32, ptr %25, align 4
  %102 = icmp slt i32 %101, 0
  br i1 %102, label %103, label %106

103:                                              ; preds = %89
  %104 = load ptr, ptr %15, align 8
  store ptr @.str.4, ptr %104, align 8
  %105 = load ptr, ptr %19, align 8
  call void @free(ptr noundef %105) #7
  store ptr null, ptr %8, align 8
  store i32 1, ptr %26, align 4
  br label %148

106:                                              ; preds = %89
  %107 = load i32, ptr %25, align 4
  %108 = load ptr, ptr %20, align 8
  %109 = sext i32 %107 to i64
  %110 = getelementptr inbounds i8, ptr %108, i64 %109
  store ptr %110, ptr %20, align 8
  %111 = load ptr, ptr %20, align 8
  %112 = getelementptr inbounds nuw i8, ptr %111, i32 1
  store ptr %112, ptr %20, align 8
  store i8 36, ptr %111, align 1
  %113 = getelementptr inbounds [32 x i8], ptr %17, i64 0, i64 0
  %114 = load i32, ptr %10, align 4
  %115 = load ptr, ptr %20, align 8
  %116 = load i32, ptr %23, align 4
  %117 = call i32 @pg_b64_encode(ptr noundef %113, i32 noundef %114, ptr noundef %115, i32 noundef %116)
  store i32 %117, ptr %25, align 4
  %118 = load i32, ptr %25, align 4
  %119 = icmp slt i32 %118, 0
  br i1 %119, label %120, label %123

120:                                              ; preds = %106
  %121 = load ptr, ptr %15, align 8
  store ptr @.str.5, ptr %121, align 8
  %122 = load ptr, ptr %19, align 8
  call void @free(ptr noundef %122) #7
  store ptr null, ptr %8, align 8
  store i32 1, ptr %26, align 4
  br label %148

123:                                              ; preds = %106
  %124 = load i32, ptr %25, align 4
  %125 = load ptr, ptr %20, align 8
  %126 = sext i32 %124 to i64
  %127 = getelementptr inbounds i8, ptr %125, i64 %126
  store ptr %127, ptr %20, align 8
  %128 = load ptr, ptr %20, align 8
  %129 = getelementptr inbounds nuw i8, ptr %128, i32 1
  store ptr %129, ptr %20, align 8
  store i8 58, ptr %128, align 1
  %130 = getelementptr inbounds [32 x i8], ptr %18, i64 0, i64 0
  %131 = load i32, ptr %10, align 4
  %132 = load ptr, ptr %20, align 8
  %133 = load i32, ptr %24, align 4
  %134 = call i32 @pg_b64_encode(ptr noundef %130, i32 noundef %131, ptr noundef %132, i32 noundef %133)
  store i32 %134, ptr %25, align 4
  %135 = load i32, ptr %25, align 4
  %136 = icmp slt i32 %135, 0
  br i1 %136, label %137, label %140

137:                                              ; preds = %123
  %138 = load ptr, ptr %15, align 8
  store ptr @.str.6, ptr %138, align 8
  %139 = load ptr, ptr %19, align 8
  call void @free(ptr noundef %139) #7
  store ptr null, ptr %8, align 8
  store i32 1, ptr %26, align 4
  br label %148

140:                                              ; preds = %123
  %141 = load i32, ptr %25, align 4
  %142 = load ptr, ptr %20, align 8
  %143 = sext i32 %141 to i64
  %144 = getelementptr inbounds i8, ptr %142, i64 %143
  store ptr %144, ptr %20, align 8
  %145 = load ptr, ptr %20, align 8
  %146 = getelementptr inbounds nuw i8, ptr %145, i32 1
  store ptr %146, ptr %20, align 8
  store i8 0, ptr %145, align 1
  %147 = load ptr, ptr %19, align 8
  store ptr %147, ptr %8, align 8
  store i32 1, ptr %26, align 4
  br label %148

148:                                              ; preds = %140, %137, %120, %103, %87, %61
  call void @llvm.lifetime.end.p0(i64 4, ptr %25) #7
  call void @llvm.lifetime.end.p0(i64 4, ptr %24) #7
  call void @llvm.lifetime.end.p0(i64 4, ptr %23) #7
  call void @llvm.lifetime.end.p0(i64 4, ptr %22) #7
  call void @llvm.lifetime.end.p0(i64 4, ptr %21) #7
  call void @llvm.lifetime.end.p0(i64 8, ptr %20) #7
  call void @llvm.lifetime.end.p0(i64 8, ptr %19) #7
  call void @llvm.lifetime.end.p0(i64 32, ptr %18) #7
  call void @llvm.lifetime.end.p0(i64 32, ptr %17) #7
  call void @llvm.lifetime.end.p0(i64 32, ptr %16) #7
  %149 = load ptr, ptr %8, align 8
  ret ptr %149
}