; Function Attrs: nounwind uwtable
define noundef ptr @scram_build_secret(i32 noundef %0, i32 noundef %1, ptr noundef %2, i32 noundef %3, i32 noundef %4, ptr noundef %5, ptr noundef writeonly captures(none) %6) local_unnamed_addr #0 {
  %8 = alloca [32 x i8], align 16
  %9 = alloca [32 x i8], align 16
  %10 = alloca [32 x i8], align 16
  call void @llvm.lifetime.start.p0(i64 32, ptr nonnull %8) #8
  call void @llvm.lifetime.start.p0(i64 32, ptr nonnull %9) #8
  call void @llvm.lifetime.start.p0(i64 32, ptr nonnull %10) #8
  %11 = call i32 @scram_SaltedPassword(ptr noundef %5, i32 noundef %0, i32 noundef %1, ptr noundef %2, i32 noundef %3, i32 noundef %4, ptr noundef nonnull %8, ptr noundef %6)
  %12 = icmp slt i32 %11, 0
  br i1 %12, label %56, label %13

13:                                               ; preds = %7
  %14 = call i32 @scram_ClientKey(ptr noundef nonnull %8, i32 noundef %0, i32 noundef %1, ptr noundef nonnull %9, ptr noundef %6)
  %15 = icmp slt i32 %14, 0
  br i1 %15, label %56, label %16

16:                                               ; preds = %13
  %17 = call i32 @scram_H(ptr noundef nonnull %9, i32 noundef %0, i32 noundef %1, ptr noundef nonnull %9, ptr noundef %6)
  %18 = icmp slt i32 %17, 0
  br i1 %18, label %56, label %19

19:                                               ; preds = %16
  %20 = call i32 @scram_ServerKey(ptr noundef nonnull %8, i32 noundef %0, i32 noundef %1, ptr noundef nonnull %10, ptr noundef %6)
  %21 = icmp slt i32 %20, 0
  br i1 %21, label %56, label %22

22:                                               ; preds = %19
  %23 = call i32 @pg_b64_enc_len(i32 noundef %3) #8
  %24 = call i32 @pg_b64_enc_len(i32 noundef %1) #8
  %25 = call i32 @pg_b64_enc_len(i32 noundef %1) #8
  %26 = add i32 %23, 28
  %27 = add i32 %26, %24
  %28 = add i32 %27, %25
  %29 = sext i32 %28 to i64
  %30 = call noalias ptr @malloc(i64 noundef %29) #9
  %.not = icmp eq ptr %30, null
  br i1 %.not, label %31, label %32

31:                                               ; preds = %22
  store ptr @.str.2, ptr %6, align 8
  br label %56

32:                                               ; preds = %22
  %33 = call i32 (ptr, ptr, ...) @pg_sprintf(ptr noundef nonnull %30, ptr noundef nonnull @.str.3, i32 noundef %4) #8
  %34 = sext i32 %33 to i64
  %35 = getelementptr inbounds i8, ptr %30, i64 %34
  %36 = call i32 @pg_b64_encode(ptr noundef %2, i32 noundef %3, ptr noundef nonnull %35, i32 noundef %23) #8
  %37 = icmp slt i32 %36, 0
  br i1 %37, label %38, label %39

38:                                               ; preds = %32
  store ptr @.str.4, ptr %6, align 8
  call void @free(ptr noundef nonnull %30) #8
  br label %56

39:                                               ; preds = %32
  %40 = zext nneg i32 %36 to i64
  %41 = getelementptr inbounds nuw i8, ptr %35, i64 %40
  %42 = getelementptr inbounds nuw i8, ptr %41, i64 1
  store i8 36, ptr %41, align 1
  %43 = call i32 @pg_b64_encode(ptr noundef nonnull %9, i32 noundef %1, ptr noundef nonnull %42, i32 noundef %24) #8
  %44 = icmp slt i32 %43, 0
  br i1 %44, label %45, label %46

45:                                               ; preds = %39
  store ptr @.str.5, ptr %6, align 8
  call void @free(ptr noundef nonnull %30) #8
  br label %56

46:                                               ; preds = %39
  %47 = zext nneg i32 %43 to i64
  %48 = getelementptr inbounds nuw i8, ptr %42, i64 %47
  %49 = getelementptr inbounds nuw i8, ptr %48, i64 1
  store i8 58, ptr %48, align 1
  %50 = call i32 @pg_b64_encode(ptr noundef nonnull %10, i32 noundef %1, ptr noundef nonnull %49, i32 noundef %25) #8
  %51 = icmp slt i32 %50, 0
  br i1 %51, label %52, label %53

52:                                               ; preds = %46
  store ptr @.str.6, ptr %6, align 8
  call void @free(ptr noundef nonnull %30) #8
  br label %56

53:                                               ; preds = %46
  %54 = zext nneg i32 %50 to i64
  %55 = getelementptr inbounds nuw i8, ptr %49, i64 %54
  store i8 0, ptr %55, align 1
  br label %56

56:                                               ; preds = %7, %13, %16, %19, %53, %52, %45, %38, %31
  %.0 = phi ptr [ null, %38 ], [ null, %45 ], [ null, %52 ], [ %30, %53 ], [ null, %31 ], [ null, %19 ], [ null, %16 ], [ null, %13 ], [ null, %7 ]
  call void @llvm.lifetime.end.p0(i64 32, ptr nonnull %10) #8
  call void @llvm.lifetime.end.p0(i64 32, ptr nonnull %9) #8
  call void @llvm.lifetime.end.p0(i64 32, ptr nonnull %8) #8
  ret ptr %.0
}